; Function Attrs: nofree norecurse nosync nounwind memory(readwrite, inaccessiblemem: none) uwtable
define void @Abc_SuppGenFilter(ptr noundef captures(none) %0, i32 noundef %1) local_unnamed_addr #9 {
  %3 = getelementptr i8, ptr %0, i64 4
  %.val = load i32, ptr %3, align 4, !tbaa !3
  %4 = icmp sgt i32 %.val, 0
  br i1 %4, label %.lr.ph, label %.critedge

.lr.ph:                                           ; preds = %2
  %5 = getelementptr i8, ptr %0, i64 8
  %.val12 = load ptr, ptr %5, align 8, !tbaa !11
  %6 = zext nneg i32 %1 to i64
  %7 = shl nuw i64 1, %6
  %wide.trip.count = zext nneg i32 %.val to i64
  br label %8

8:                                                ; preds = %.lr.ph, %17
  %indvars.iv = phi i64 [ 0, %.lr.ph ], [ %indvars.iv.next, %17 ]
  %.015 = phi i32 [ 0, %.lr.ph ], [ %.1, %17 ]
  %9 = getelementptr inbounds nuw i64, ptr %.val12, i64 %indvars.iv
  %10 = load i64, ptr %9, align 8, !tbaa !12
  %11 = and i64 %10, %7
  %12 = icmp eq i64 %11, 0
  br i1 %12, label %13, label %17

13:                                               ; preds = %8
  %14 = add nsw i32 %.015, 1
  %15 = sext i32 %.015 to i64
  %16 = getelementptr inbounds i64, ptr %.val12, i64 %15
  store i64 %10, ptr %16, align 8, !tbaa !12
  br label %17

17:                                               ; preds = %8, %13
  %.1 = phi i32 [ %14, %13 ], [ %.015, %8 ]
  %indvars.iv.next = add nuw nsw i64 %indvars.iv, 1
  %exitcond.not = icmp eq i64 %indvars.iv.next, %wide.trip.count
  br i1 %exitcond.not, label %.critedge, label %8, !llvm.loop !32

.critedge:                                        ; preds = %17, %2
  %.0.lcssa = phi i32 [ 0, %2 ], [ %.1, %17 ]
  store i32 %.0.lcssa, ptr %3, align 4, !tbaa !3
  ret void
}